; Function Attrs: mustprogress uwtable
define dso_local i64 @_ZN14cmFileLockPool9ScopePool4LockERKNSt7__cxx1112basic_stringIcSt11char_traitsIcESaIcEEEm(ptr noundef nonnull align 8 dereferenceable(24) %0, ptr noundef nonnull align 8 dereferenceable(32) %1, i64 noundef %2) local_unnamed_addr #2 align 2 personality ptr @__gxx_personality_v0 {
  %4 = alloca %class.cmFileLock, align 8
  %5 = alloca %class.cmFileLockResult, align 8
  call void @_ZN10cmFileLockC1Ev(ptr noundef nonnull align 8 dereferenceable(40) %4)
  %6 = invoke i64 @_ZN10cmFileLock4LockERKNSt7__cxx1112basic_stringIcSt11char_traitsIcESaIcEEEm(ptr noundef nonnull align 8 dereferenceable(40) %4, ptr noundef nonnull align 8 dereferenceable(32) %1, i64 noundef %2)
          to label %7 unwind label %20

7:                                                ; preds = %3
  store i64 %6, ptr %5, align 8
  %8 = invoke noundef zeroext i1 @_ZNK16cmFileLockResult4IsOkEv(ptr noundef nonnull align 4 dereferenceable(8) %5)
          to label %9 unwind label %20

9:                                                ; preds = %7
  br i1 %8, label %10, label %22

10:                                               ; preds = %9
  %11 = getelementptr inbounds nuw i8, ptr %0, i64 8
  %12 = load ptr, ptr %11, align 8
  %13 = getelementptr inbounds nuw i8, ptr %0, i64 16
  %14 = load ptr, ptr %13, align 8
  %.not.i.i = icmp eq ptr %12, %14
  br i1 %.not.i.i, label %18, label %15

15:                                               ; preds = %10
  call void @_ZN10cmFileLockC1EOS_(ptr noundef nonnull align 8 dereferenceable(40) %12, ptr noundef nonnull align 8 dereferenceable(40) %4) #13
  %16 = load ptr, ptr %11, align 8
  %17 = getelementptr inbounds nuw i8, ptr %16, i64 40
  store ptr %17, ptr %11, align 8
  br label %_ZNSt6vectorI10cmFileLockSaIS0_EE9push_backEOS0_.exit

18:                                               ; preds = %10
  invoke void @_ZNSt6vectorI10cmFileLockSaIS0_EE17_M_realloc_insertIJS0_EEEvN9__gnu_cxx17__normal_iteratorIPS0_S2_EEDpOT_(ptr noundef nonnull align 8 dereferenceable(24) %0, ptr %12, ptr noundef nonnull align 8 dereferenceable(40) %4)
          to label %_ZNSt6vectorI10cmFileLockSaIS0_EE9push_backEOS0_.exit unwind label %20

_ZNSt6vectorI10cmFileLockSaIS0_EE9push_backEOS0_.exit: ; preds = %15, %18
  %19 = invoke i64 @_ZN16cmFileLockResult6MakeOkEv()
          to label %23 unwind label %20

20:                                               ; preds = %18, %_ZNSt6vectorI10cmFileLockSaIS0_EE9push_backEOS0_.exit, %7, %3
  %21 = landingpad { ptr, i32 }
          cleanup
  call void @_ZN10cmFileLockD1Ev(ptr noundef nonnull align 8 dereferenceable(40) %4) #13
  resume { ptr, i32 } %21

22:                                               ; preds = %9
  %.sroa.0.0.copyload = load i64, ptr %5, align 8
  br label %23

23:                                               ; preds = %_ZNSt6vectorI10cmFileLockSaIS0_EE9push_backEOS0_.exit, %22
  %.sroa.0.0 = phi i64 [ %.sroa.0.0.copyload, %22 ], [ %19, %_ZNSt6vectorI10cmFileLockSaIS0_EE9push_backEOS0_.exit ]
  call void @_ZN10cmFileLockD1Ev(ptr noundef nonnull align 8 dereferenceable(40) %4) #13
  ret i64 %.sroa.0.0
}